; Function Attrs: nounwind uwtable
define internal i32 @tls_dump_write(ptr noundef %0, ptr noundef %1, i32 noundef %2) #0 {
  %4 = tail call ptr @BIO_next(ptr noundef %0) #14
  %5 = tail call i32 @BIO_write(ptr noundef %4, ptr noundef %1, i32 noundef %2) #14
  %6 = tail call ptr @BIO_next(ptr noundef %0) #14
  %7 = tail call i32 @BIO_test_flags(ptr noundef %6, i32 noundef 15) #14
  tail call void @BIO_clear_flags(ptr noundef %0, i32 noundef 15) #14
  tail call void @BIO_set_flags(ptr noundef %0, i32 noundef %7) #14
  ret i32 %5
}